target datalayout = "e-m:e-p270:32:32-p271:32:32-p272:64:64-i64:64-i128:128-f80:128-n8:16:32:64-S128"
target triple = "x86_64-pc-linux-gnu"

%"class.std::unique_ptr" = type { %"struct.std::__uniq_ptr_data" }
%"struct.std::__uniq_ptr_data" = type { %"class.std::__uniq_ptr_impl" }
%"class.std::__uniq_ptr_impl" = type { %"class.std::tuple" }
%"class.std::tuple" = type { %"struct.std::_Tuple_impl" }
%"struct.std::_Tuple_impl" = type { %"struct.std::_Head_base.2" }
%"struct.std::_Head_base.2" = type { ptr }
%"class.absl::lts_20240116::log_internal::Voidify" = type { i8 }
%"class.absl::lts_20240116::log_internal::LogMessageFatal" = type { %"class.absl::lts_20240116::log_internal::LogMessage" }
%"class.absl::lts_20240116::log_internal::LogMessage" = type { %"class.absl::lts_20240116::base_internal::ErrnoSaver", %"class.std::unique_ptr.3" }
%"class.absl::lts_20240116::base_internal::ErrnoSaver" = type { i32 }
%"class.std::unique_ptr.3" = type { %"struct.std::__uniq_ptr_data.4" }
%"struct.std::__uniq_ptr_data.4" = type { %"class.std::__uniq_ptr_impl.5" }
%"class.std::__uniq_ptr_impl.5" = type { %"class.std::tuple.6" }
%"class.std::tuple.6" = type { %"struct.std::_Tuple_impl.7" }
%"struct.std::_Tuple_impl.7" = type { %"struct.std::_Head_base.10" }
%"struct.std::_Head_base.10" = type { ptr }
%"class.std::basic_string_view" = type { i64, ptr }

@.str = private unnamed_addr constant [144 x i8] c"generated/home/dtcxzyw/WorkSpace/Projects/compilers/llvm-opt-benchmark/bench/ceres/ceres-solver/internal/ceres/linear_least_squares_problems.cc\00", align 1
@.str.3 = private unnamed_addr constant [30 x i8] c"Unknown problem id requested \00", align 1

; Function Attrs: noinline noreturn nounwind uwtable
define linkonce_odr hidden void @__clang_call_terminate(ptr noundef %0) #13 comdat {
  %2 = call ptr @__cxa_begin_catch(ptr %0) #27
  call void @_ZSt9terminatev() #29
  unreachable
}

; Function Attrs: mustprogress nounwind uwtable
define linkonce_odr hidden noundef i64 @_ZNSt11char_traitsIcE6lengthEPKc(ptr noundef %0) #1 comdat align 2 {
  %2 = alloca ptr, align 8
  store ptr %0, ptr %2, align 8, !tbaa !74
  %3 = load ptr, ptr %2, align 8, !tbaa !74
  %4 = call i64 @strlen(ptr noundef %3) #27
  ret i64 %4
}

; Function Attrs: mustprogress nounwind uwtable
define linkonce_odr hidden void @_ZNSt17basic_string_viewIcSt11char_traitsIcEEC2EPKc(ptr noundef nonnull align 8 dereferenceable(16) %0, ptr noundef nonnull %1) unnamed_addr #1 comdat align 2 personality ptr @__gxx_personality_v0 {
  %3 = alloca ptr, align 8
  %4 = alloca ptr, align 8
  store ptr %0, ptr %3, align 8, !tbaa !96
  store ptr %1, ptr %4, align 8, !tbaa !74
  %5 = load ptr, ptr %3, align 8
  %6 = getelementptr inbounds nuw %"class.std::basic_string_view", ptr %5, i32 0, i32 0
  %7 = load ptr, ptr %4, align 8, !tbaa !74
  %8 = invoke noundef i64 @_ZNSt11char_traitsIcE6lengthEPKc(ptr noundef %7)
          to label %9 unwind label %12

9:                                                ; preds = %2
  store i64 %8, ptr %6, align 8, !tbaa !98
  %10 = getelementptr inbounds nuw %"class.std::basic_string_view", ptr %5, i32 0, i32 1
  %11 = load ptr, ptr %4, align 8, !tbaa !74
  store ptr %11, ptr %10, align 8, !tbaa !100
  ret void

12:                                               ; preds = %2
  %13 = landingpad { ptr, i32 }
          catch ptr null
  %14 = extractvalue { ptr, i32 } %13, 0
  call void @__clang_call_terminate(ptr %14) #29
  unreachable
}

; Function Attrs: mustprogress nounwind uwtable
define linkonce_odr hidden void @_ZNKO4absl12lts_2024011612log_internal7VoidifyaaINS1_10LogMessageEEEvRKT_(ptr noundef nonnull align 1 dereferenceable(1) %0, ptr noundef nonnull align 8 dereferenceable(16) %1) #1 comdat align 2 {
  %3 = alloca ptr, align 8
  %4 = alloca ptr, align 8
  store ptr %0, ptr %3, align 8, !tbaa !70
  store ptr %1, ptr %4, align 8, !tbaa !72
  ret void
}

; Function Attrs: mustprogress uwtable
define linkonce_odr hidden noundef nonnull align 8 dereferenceable(16) ptr @_ZN4absl12lts_2024011612log_internal10LogMessagelsILi30EEERS2_RAT__Kc(ptr noundef nonnull align 8 dereferenceable(16) %0, ptr noundef nonnull align 1 dereferenceable(30) %1) #3 comdat align 2 {
  %3 = alloca ptr, align 8
  %4 = alloca ptr, align 8
  %5 = alloca %"class.std::basic_string_view", align 8
  store ptr %0, ptr %3, align 8, !tbaa !72
  store ptr %1, ptr %4, align 8, !tbaa !74
  %6 = load ptr, ptr %3, align 8
  %7 = load ptr, ptr %4, align 8, !tbaa !74
  %8 = getelementptr inbounds [30 x i8], ptr %7, i64 0, i64 0
  call void @_ZNSt17basic_string_viewIcSt11char_traitsIcEEC2EPKc(ptr noundef nonnull align 8 dereferenceable(16) %5, ptr noundef %8) #27
  %9 = getelementptr inbounds nuw { i64, ptr }, ptr %5, i32 0, i32 0
  %10 = load i64, ptr %9, align 8
  %11 = getelementptr inbounds nuw { i64, ptr }, ptr %5, i32 0, i32 1
  %12 = load ptr, ptr %11, align 8
  call void @_ZN4absl12lts_2024011612log_internal10LogMessage19CopyToEncodedBufferILNS2_10StringTypeE0EEEvSt17basic_string_viewIcSt11char_traitsIcEE(ptr noundef nonnull align 8 dereferenceable(16) %6, i64 %10, ptr %12)
  ret ptr %6
}

; Function Attrs: mustprogress nounwind uwtable
define linkonce_odr hidden noundef nonnull align 8 dereferenceable(16) ptr @_ZN4absl12lts_2024011612log_internal10LogMessage14InternalStreamEv(ptr noundef nonnull align 8 dereferenceable(16) %0) #1 comdat align 2 {
  %2 = alloca ptr, align 8
  store ptr %0, ptr %2, align 8, !tbaa !72
  %3 = load ptr, ptr %2, align 8
  ret ptr %3
}

; Function Attrs: mustprogress uwtable
define hidden void @_ZN5ceres8internal37CreateLinearLeastSquaresProblemFromIdEi(ptr dead_on_unwind noalias writable sret(%"class.std::unique_ptr") align 8 %0, i32 noundef %1) #3 personality ptr @__gxx_personality_v0 {
  %3 = alloca ptr, align 8
  %4 = alloca i32, align 4
  %5 = alloca %"class.absl::lts_20240116::log_internal::Voidify", align 1
  %6 = alloca %"class.absl::lts_20240116::log_internal::LogMessageFatal", align 8
  %7 = alloca ptr, align 8
  %8 = alloca i32, align 4
  store ptr %0, ptr %3, align 8
  store i32 %1, ptr %4, align 4, !tbaa !14
  %9 = load i32, ptr %4, align 4, !tbaa !14
  switch i32 %9, label %17 [
    i32 0, label %10
    i32 1, label %11
    i32 2, label %12
    i32 3, label %13
    i32 4, label %14
    i32 5, label %15
    i32 6, label %16
  ]

10:                                               ; preds = %2
  call void @_ZN5ceres8internal26LinearLeastSquaresProblem0Ev(ptr dead_on_unwind writable sret(%"class.std::unique_ptr") align 8 %0)
  br label %31

11:                                               ; preds = %2
  call void @_ZN5ceres8internal26LinearLeastSquaresProblem1Ev(ptr dead_on_unwind writable sret(%"class.std::unique_ptr") align 8 %0)
  br label %31

12:                                               ; preds = %2
  call void @_ZN5ceres8internal26LinearLeastSquaresProblem2Ev(ptr dead_on_unwind writable sret(%"class.std::unique_ptr") align 8 %0)
  br label %31

13:                                               ; preds = %2
  call void @_ZN5ceres8internal26LinearLeastSquaresProblem3Ev(ptr dead_on_unwind writable sret(%"class.std::unique_ptr") align 8 %0)
  br label %31

14:                                               ; preds = %2
  call void @_ZN5ceres8internal26LinearLeastSquaresProblem4Ev(ptr dead_on_unwind writable sret(%"class.std::unique_ptr") align 8 %0)
  br label %31

15:                                               ; preds = %2
  call void @_ZN5ceres8internal26LinearLeastSquaresProblem5Ev(ptr dead_on_unwind writable sret(%"class.std::unique_ptr") align 8 %0)
  br label %31

16:                                               ; preds = %2
  call void @_ZN5ceres8internal26LinearLeastSquaresProblem6Ev(ptr dead_on_unwind writable sret(%"class.std::unique_ptr") align 8 %0)
  br label %31

17:                                               ; preds = %2
  call void @llvm.lifetime.start.p0(i64 1, ptr %5) #27
  call void @llvm.lifetime.start.p0(i64 16, ptr %6) #27
  call void @_ZN4absl12lts_2024011612log_internal15LogMessageFatalC1EPKci(ptr noundef nonnull align 8 dereferenceable(16) %6, ptr noundef @.str, i32 noundef 68) #28
  %18 = invoke noundef nonnull align 8 dereferenceable(16) ptr @_ZN4absl12lts_2024011612log_internal10LogMessage14InternalStreamEv(ptr noundef nonnull align 8 dereferenceable(16) %6)
          to label %19 unwind label %26

19:                                               ; preds = %17
  %20 = invoke noundef nonnull align 8 dereferenceable(16) ptr @_ZN4absl12lts_2024011612log_internal10LogMessagelsILi30EEERS2_RAT__Kc(ptr noundef nonnull align 8 dereferenceable(16) %18, ptr noundef nonnull align 1 dereferenceable(30) @.str.3)
          to label %21 unwind label %26

21:                                               ; preds = %19
  %22 = load i32, ptr %4, align 4, !tbaa !14
  %23 = invoke noundef nonnull align 8 dereferenceable(16) ptr @_ZN4absl12lts_2024011612log_internal10LogMessagelsEi(ptr noundef nonnull align 8 dereferenceable(16) %20, i32 noundef %22)
          to label %24 unwind label %26

24:                                               ; preds = %21
  invoke void @_ZNKO4absl12lts_2024011612log_internal7VoidifyaaINS1_10LogMessageEEEvRKT_(ptr noundef nonnull align 1 dereferenceable(1) %5, ptr noundef nonnull align 8 dereferenceable(16) %23)
          to label %25 unwind label %26

25:                                               ; preds = %24
  call void @_ZN4absl12lts_2024011612log_internal15LogMessageFatalD1Ev(ptr noundef nonnull align 8 dereferenceable(16) %6) #29
  unreachable

26:                                               ; preds = %24, %21, %19, %17
  %27 = landingpad { ptr, i32 }
          cleanup
  %28 = extractvalue { ptr, i32 } %27, 0
  store ptr %28, ptr %7, align 8
  %29 = extractvalue { ptr, i32 } %27, 1
  store i32 %29, ptr %8, align 4
  call void @_ZN4absl12lts_2024011612log_internal15LogMessageFatalD1Ev(ptr noundef nonnull align 8 dereferenceable(16) %6) #29
  unreachable

30:                                               ; No predecessors!
  call void @llvm.lifetime.end.p0(i64 16, ptr %6) #27
  call void @llvm.lifetime.end.p0(i64 1, ptr %5) #27
  br label %32

31:                                               ; preds = %16, %15, %14, %13, %12, %11, %10
  ret void

32:                                               ; preds = %30
  %33 = load ptr, ptr %7, align 8
  %34 = load i32, ptr %8, align 4
  %35 = insertvalue { ptr, i32 } poison, ptr %33, 0
  %36 = insertvalue { ptr, i32 } %35, i32 %34, 1
  resume { ptr, i32 } %36
}