; Function Attrs: mustprogress uwtable
define hidden void @_ZN5ceres8internal37CreateLinearLeastSquaresProblemFromIdEi(ptr dead_on_unwind noalias writable sret(%"class.std::unique_ptr") align 8 %0, i32 noundef %1) local_unnamed_addr #0 personality ptr @__gxx_personality_v0 {
  %3 = alloca %"class.absl::lts_20240116::log_internal::LogMessageFatal", align 8
  switch i32 %1, label %11 [
    i32 0, label %4
    i32 1, label %5
    i32 2, label %6
    i32 3, label %7
    i32 4, label %8
    i32 5, label %9
    i32 6, label %10
  ]

4:                                                ; preds = %2
  tail call void @_ZN5ceres8internal26LinearLeastSquaresProblem0Ev(ptr dead_on_unwind writable sret(%"class.std::unique_ptr") align 8 %0)
  br label %16

5:                                                ; preds = %2
  tail call void @_ZN5ceres8internal26LinearLeastSquaresProblem1Ev(ptr dead_on_unwind writable sret(%"class.std::unique_ptr") align 8 %0)
  br label %16

6:                                                ; preds = %2
  tail call void @_ZN5ceres8internal26LinearLeastSquaresProblem2Ev(ptr dead_on_unwind writable sret(%"class.std::unique_ptr") align 8 %0)
  br label %16

7:                                                ; preds = %2
  tail call void @_ZN5ceres8internal26LinearLeastSquaresProblem3Ev(ptr dead_on_unwind writable sret(%"class.std::unique_ptr") align 8 %0)
  br label %16

8:                                                ; preds = %2
  tail call void @_ZN5ceres8internal26LinearLeastSquaresProblem4Ev(ptr dead_on_unwind writable sret(%"class.std::unique_ptr") align 8 %0)
  br label %16

9:                                                ; preds = %2
  tail call void @_ZN5ceres8internal26LinearLeastSquaresProblem5Ev(ptr dead_on_unwind writable sret(%"class.std::unique_ptr") align 8 %0)
  br label %16

10:                                               ; preds = %2
  tail call void @_ZN5ceres8internal26LinearLeastSquaresProblem6Ev(ptr dead_on_unwind writable sret(%"class.std::unique_ptr") align 8 %0)
  br label %16

11:                                               ; preds = %2
  call void @llvm.lifetime.start.p0(i64 16, ptr nonnull %3) #25
  call void @_ZN4absl12lts_2024011612log_internal15LogMessageFatalC1EPKci(ptr noundef nonnull align 8 dereferenceable(16) %3, ptr noundef nonnull @.str, i32 noundef 68) #26
  invoke void @_ZN4absl12lts_2024011612log_internal10LogMessage19CopyToEncodedBufferILNS2_10StringTypeE0EEEvSt17basic_string_viewIcSt11char_traitsIcEE(ptr noundef nonnull align 8 dereferenceable(16) %3, i64 29, ptr nonnull @.str.3)
          to label %_ZN4absl12lts_2024011612log_internal10LogMessagelsILi30EEERS2_RAT__Kc.exit unwind label %14

_ZN4absl12lts_2024011612log_internal10LogMessagelsILi30EEERS2_RAT__Kc.exit: ; preds = %11
  %12 = invoke noundef nonnull align 8 dereferenceable(16) ptr @_ZN4absl12lts_2024011612log_internal10LogMessagelsEi(ptr noundef nonnull align 8 dereferenceable(16) %3, i32 noundef %1)
          to label %13 unwind label %14

13:                                               ; preds = %_ZN4absl12lts_2024011612log_internal10LogMessagelsILi30EEERS2_RAT__Kc.exit
  call void @_ZN4absl12lts_2024011612log_internal15LogMessageFatalD1Ev(ptr noundef nonnull align 8 dereferenceable(16) %3) #27
  unreachable

14:                                               ; preds = %11, %_ZN4absl12lts_2024011612log_internal10LogMessagelsILi30EEERS2_RAT__Kc.exit
  %15 = landingpad { ptr, i32 }
          cleanup
  call void @_ZN4absl12lts_2024011612log_internal15LogMessageFatalD1Ev(ptr noundef nonnull align 8 dereferenceable(16) %3) #27
  unreachable

16:                                               ; preds = %10, %9, %8, %7, %6, %5, %4
  ret void
}